(dp1
S'/usr/lib/python2.7/abc.py'
p2
c__builtin__
set
p3
((lp4
I151
aI154
aI156
aI157
aI158
aI161
aI162
aI170
aI174
aI175
aI179
aI184
aI185
aI87
aI89
aI90
aI91
aI92
aI93
aI97
aI99
aI100
aI101
aI102
aI103
aI107
aI109
aI113
aI116
aI117
atRp5
sS'/usr/lib/python2.7/UserDict.py'
p6
g3
((lp7
I40
atRp8
sS'/usr/local/lib/python2.7/dist-packages/figleaf-0.6.1-py2.7.egg/figleaf/internals.py'
p9
g3
((lp10
I98
aI99
atRp11
sS'/usr/lib/python2.7/threading.py'
p12
g3
((lp13
I94
atRp14
sS'test_nokaut_api.py'
p15
g3
((lp16
I2
aI3
aI4
aI5
aI7
aI9
aI29
aI30
aI31
aI32
aI34
aI35
aI36
aI41
aI42
atRp17
sS'/usr/lib/python2.7/posixpath.py'
p18
g3
((lp19
I112
aI113
atRp20
sS'/usr/lib/python2.7/unittest/main.py'
p21
g3
((lp22
I1
aI3
aI4
aI5
aI7
aI8
aI10
aI12
aI13
aI14
aI43
aI59
aI63
aI66
aI67
aI70
aI72
aI73
aI74
aI75
aI76
aI77
aI78
aI82
aI83
aI85
aI86
aI87
aI88
aI89
aI90
aI91
aI92
aI93
aI94
aI95
aI97
aI111
aI112
aI116
aI117
aI118
aI119
aI120
aI121
aI123
aI125
aI126
aI127
aI131
aI135
aI139
aI141
aI149
aI153
aI154
aI155
aI160
aI213
aI214
aI216
aI217
aI218
aI219
aI220
aI221
aI222
aI229
aI230
aI231
aI233
atRp23
sS'/usr/lib/python2.7/urlparse.py'
p24
g3
((lp25
I135
aI136
aI137
aI140
aI141
aI153
aI154
aI155
aI156
aI157
aI158
aI166
aI167
aI168
aI169
aI171
aI173
aI174
aI175
aI176
aI177
aI178
aI179
aI180
aI181
aI182
aI184
aI186
aI187
aI188
aI189
aI190
atRp26
sS'/usr/lib/python2.7/urllib.py'
p27
g3
((lp28
I1033
aI1034
aI1039
aI1042
aI23
aI25
aI26
aI27
aI28
aI29
aI1054
aI32
aI1057
aI34
aI1059
aI1060
aI37
aI38
aI39
aI40
aI1066
aI1067
aI1068
aI1070
aI47
aI1072
aI1073
aI1076
aI1077
aI1080
aI1081
aI1082
aI1084
aI1085
aI1086
aI1087
aI1088
aI1090
aI1093
aI1094
aI71
aI1105
aI1106
aI89
aI94
aI1119
aI101
aI102
aI1130
aI1131
aI109
aI110
aI114
aI115
aI121
aI123
aI125
aI128
aI1153
aI1164
aI1165
aI1168
aI1169
aI1170
aI1172
aI1173
aI1174
aI151
aI1176
aI154
aI157
aI1182
aI1183
aI171
aI1198
aI1199
aI1200
aI177
aI1202
aI1204
aI30
aI1206
aI1207
aI1056
aI1218
aI1223
aI1226
aI1227
aI1228
aI1229
aI1231
aI35
aI213
aI36
aI218
aI224
aI1062
aI1063
aI1270
aI42
aI44
aI1071
aI289
aI49
aI52
aI1341
aI1350
aI1351
aI1352
aI1353
aI1355
aI1357
aI57
aI1378
aI362
aI377
aI382
aI383
aI70
aI1457
aI455
aI464
aI1277
aI501
aI1579
aI1580
aI1583
aI563
aI1118
aI1599
aI609
aI610
aI612
aI618
aI622
aI106
aI638
aI662
aI666
aI670
aI677
aI699
aI721
aI738
aI755
aI768
aI1152
aI781
aI792
aI808
aI809
aI816
aI817
aI824
aI825
aI833
aI834
aI850
aI851
aI854
aI855
aI866
aI875
aI918
aI927
aI932
aI938
aI945
aI946
aI948
aI949
aI950
aI951
aI952
aI953
aI954
aI957
aI958
aI959
aI960
aI962
aI966
aI974
aI975
aI977
aI982
aI989
aI990
aI992
aI996
aI999
aI1000
aI1002
aI1003
aI1004
aI1005
aI1006
aI1008
aI1009
aI1011
aI1014
atRp29
sS'/usr/lib/python2.7/encodings/ascii.py'
p30
g3
((lp31
I8
aI9
aI13
aI17
aI18
aI20
aI21
aI24
aI25
aI28
aI29
aI31
aI32
aI34
aI36
aI37
aI41
aI42
aI43
aI44
aI45
aI46
aI47
aI48
aI49
atRp32
sS'/usr/lib/python2.7/unittest/__init__.py'
p33
g3
((lp34
I64
aI65
aI66
aI69
aI45
aI47
aI48
aI49
aI50
aI51
aI54
aI56
aI58
aI59
aI61
aI62
atRp35
sS'/usr/lib/python2.7/warnings.py'
p36
g3
((lp37
I326
aI327
aI328
aI19
aI340
aI342
aI343
aI344
aI345
aI346
aI353
aI356
aI358
aI359
atRp38
sS'/usr/lib/python2.7/random.py'
p39
g3
((lp40
I686
aI40
aI42
aI43
aI44
aI45
aI558
aI47
aI48
aI49
aI51
aI52
aI53
aI54
aI55
aI56
aI58
aI59
aI60
aI61
aI62
aI63
aI70
aI72
aI87
aI89
aI91
aI97
aI98
aI611
aI100
aI109
aI110
aI111
aI116
aI117
aI119
aI123
aI638
aI651
aI653
aI655
aI145
aI162
aI165
aI168
aI173
aI174
aI629
aI717
aI721
aI731
aI380
aI237
aI753
aI243
aI244
aI776
aI272
aI276
aI46
aI801
aI290
aI807
aI809
aI813
aI823
aI826
aI828
aI831
aI835
aI857
aI355
aI361
aI881
aI882
aI883
aI884
aI885
aI886
aI887
aI888
aI889
aI890
aI891
aI892
aI893
aI894
aI895
aI896
aI897
aI898
aI899
aI900
aI901
aI902
aI903
aI905
aI405
aI417
aI436
aI486
atRp41
sS'/usr/lib/python2.7/difflib.py'
p42
g3
((lp43
I261
aI2054
aI2058
aI531
aI1813
aI29
aI31
aI32
aI33
aI35
aI1316
aI37
aI39
aI41
aI46
aI1841
aI306
aI152
aI1862
aI1352
aI1353
aI586
aI1106
aI1108
aI858
aI860
aI1885
aI350
aI1690
aI1634
aI1124
aI1896
aI1643
aI1043
aI884
aI1653
aI1147
aI636
aI1686
aI1158
aI1159
aI1672
aI1944
aI662
aI1943
aI1688
aI1689
aI154
aI1691
aI1692
aI925
aI1694
aI1695
aI930
aI1711
aI1712
aI945
aI691
aI703
aI1056
aI1735
aI460
aI1230
aI36
aI1242
aI1243
aI1758
aI223
aI2020
aI2022
aI235
aI1670
aI751
aI766
atRp44
sS'nokaut_api.py'
p45
g3
((lp46
I1
aI3
aI4
aI5
aI6
aI9
aI12
aI13
aI14
aI15
aI16
aI17
aI18
aI19
aI20
aI21
aI22
aI28
aI33
aI51
aI52
aI57
atRp47
sS'/usr/lib/python2.7/getopt.py'
p48
g3
((lp49
I15
aI144
aI34
aI36
aI38
aI39
aI40
aI41
aI46
aI49
aI51
aI187
aI188
aI189
aI190
aI198
aI199
aI200
aI202
aI203
aI204
aI205
aI78
aI79
aI208
aI82
aI83
aI84
aI87
aI90
aI92
aI94
aI166
atRp50
sS'/usr/lib/python2.7/_weakrefset.py'
p51
g3
((lp52
I18
aI21
aI22
aI23
aI24
aI27
aI28
aI29
aI30
aI31
aI32
aI37
aI38
aI45
aI47
aI48
aI49
aI53
aI54
aI55
aI59
aI60
aI61
aI62
aI63
aI69
aI70
aI73
aI82
aI84
atRp53
sS'/usr/lib/python2.7/collections.py'
p54
g3
((lp55
I263
aI264
aI265
aI266
aI276
aI277
aI279
aI281
aI283
aI284
aI285
aI287
aI289
aI292
aI293
aI294
aI324
aI325
aI326
aI327
aI332
aI333
aI334
aI335
aI338
aI344
aI345
aI349
atRp56
sS'/usr/lib/python2.7/re.py'
p57
g3
((lp58
I137
aI228
aI229
aI230
aI232
aI233
aI237
aI239
aI240
aI243
aI245
aI246
aI190
atRp59
sS'/usr/lib/python2.7/unittest/runner.py'
p60
g3
((lp61
I1
aI3
aI4
aI6
aI7
aI9
aI12
aI13
aI14
aI15
aI17
aI18
aI20
aI22
aI23
aI24
aI25
aI28
aI32
aI33
aI34
aI36
aI37
aI38
aI39
aI40
aI41
aI43
aI44
aI45
aI48
aI50
aI51
aI52
aI53
aI54
aI55
aI57
aI58
aI59
aI60
aI61
aI62
aI63
aI65
aI73
aI81
aI89
aI97
aI105
aI106
aI107
aI108
aI109
aI111
aI112
aI119
aI124
aI125
aI127
aI128
aI129
aI130
aI131
aI132
aI133
aI134
aI137
aI138
aI140
aI142
aI143
aI144
aI145
aI146
aI147
aI148
aI149
aI150
aI151
aI153
aI154
aI155
aI156
aI157
aI158
aI159
aI160
aI161
aI162
aI163
aI164
aI166
aI167
aI168
aI169
aI170
aI174
aI176
aI177
aI185
aI186
aI188
aI190
aI192
aI195
aI196
atRp62
sS'/usr/lib/python2.7/urllib2.py'
p63
g3
((lp64
I1195
aI345
aI1048
aI176
aI1060
aI1201
aI1065
aI1070
aI1072
aI1073
aI1075
aI1083
aI1085
aI1086
aI1088
aI1095
aI1097
aI1098
aI1100
aI1103
aI1104
aI1105
aI1108
aI185
aI92
aI93
aI94
aI1119
aI96
aI97
aI98
aI1123
aI1124
aI101
aI1126
aI103
aI1128
aI106
aI107
aI1132
aI111
aI116
aI190
aI1142
aI119
aI121
aI1146
aI1147
aI124
aI1149
aI126
aI128
aI1159
aI136
aI1161
aI1163
aI142
aI146
aI1219
aI149
aI1174
aI151
aI196
aI1179
aI1180
aI166
aI171
aI1196
aI1198
aI1199
aI1200
aI177
aI1204
aI1206
aI1207
aI184
aI1209
aI186
aI1211
aI1212
aI202
aI1214
aI191
aI193
aI195
aI1220
aI198
aI199
aI200
aI1226
aI203
aI204
aI205
aI1230
aI207
aI209
aI1234
aI1235
aI212
aI1237
aI1238
aI215
aI1242
aI227
aI228
aI231
aI235
aI210
aI238
aI239
aI206
aI211
aI244
aI245
aI248
aI250
aI251
aI252
aI253
aI213
aI257
aI258
aI259
aI260
aI261
aI262
aI264
aI265
aI267
aI1295
aI276
aI1301
aI279
aI282
aI285
aI289
aI1314
aI291
aI293
aI294
aI295
aI297
aI1325
aI302
aI392
aI307
aI308
aI309
aI310
aI312
aI314
aI315
aI316
aI317
aI319
aI320
aI324
aI325
aI326
aI328
aI1353
aI1354
aI331
aI332
aI334
aI335
aI336
aI337
aI338
aI339
aI340
aI341
aI342
aI343
aI344
aI1252
aI346
aI347
aI348
aI349
aI350
aI351
aI355
aI356
aI359
aI360
aI362
aI363
aI364
aI366
aI370
aI374
aI375
aI376
aI378
aI379
aI380
aI382
aI1407
aI384
aI385
aI1413
aI391
aI1416
aI395
aI396
aI397
aI398
aI1423
aI400
aI1426
aI403
aI404
aI1429
aI406
aI408
aI410
aI751
aI412
aI413
aI1439
aI1173
aI417
aI418
aI411
aI420
aI241
aI425
aI1459
aI416
aI450
aI76
aI459
aI460
aI463
aI464
aI465
aI466
aI467
aI468
aI469
aI470
aI471
aI477
aI480
aI481
aI419
aI483
aI487
aI489
aI490
aI492
aI493
aI495
aI499
aI500
aI505
aI255
aI508
aI509
aI510
aI512
aI513
aI517
aI521
aI523
aI525
aI526
aI529
aI532
aI535
aI537
aI1143
aI1118
aI95
aI1313
aI99
aI100
aI1125
aI102
aI1127
aI104
aI627
aI629
aI634
aI1130
aI277
aI1303
aI706
aI708
aI710
aI711
aI712
aI713
aI1217
aI715
aI720
aI122
aI749
aI125
aI754
aI1150
aI765
aI571
aI775
aI798
aI813
aI815
aI1160
aI823
aI830
aI831
aI837
aI844
aI847
aI870
aI883
aI885
aI887
aI895
aI897
aI899
aI150
aI405
aI911
aI153
aI925
aI936
aI945
aI948
aI330
aI965
aI714
aI977
aI987
atRp65
sS'/usr/lib/python2.7/StringIO.py'
p66
g3
((lp67
I258
aI139
aI278
aI30
aI31
aI32
aI36
aI38
aI168
aI42
aI53
aI54
aI187
aI65
aI323
aI68
aI208
aI81
aI88
aI95
aI241
aI114
aI119
aI253
atRp68
sS'/usr/lib/python2.7/tempfile.py'
p69
g3
((lp70
I513
aI530
aI21
aI22
aI23
aI24
aI25
aI26
aI539
aI542
aI32
aI545
aI34
aI36
aI549
aI41
aI42
aI557
aI47
aI560
aI563
aI567
aI58
aI571
aI62
aI575
aI64
aI65
aI578
aI67
aI68
aI581
aI70
aI71
aI584
aI74
aI75
aI590
aI79
aI594
aI83
aI597
aI86
aI600
aI606
aI99
aI612
aI107
aI18
aI113
aI116
aI117
aI119
aI123
aI131
aI134
aI535
aI147
aI175
aI33
aI210
aI212
aI37
aI226
aI553
aI248
aI252
aI254
aI266
aI303
aI334
aI59
aI364
aI370
aI372
aI378
aI390
aI397
aI403
aI405
aI412
aI417
aI426
aI427
aI587
aI458
aI464
aI465
aI493
aI497
aI498
aI500
aI501
aI507
aI85
atRp71
sS'/usr/lib/python2.7/unittest/loader.py'
p72
g3
((lp73
I1
aI3
aI4
aI5
aI6
aI7
aI9
aI10
aI12
aI14
aI19
aI22
aI27
aI30
aI294
aI297
aI42
aI43
aI44
aI45
aI46
aI48
aI305
aI50
aI308
aI53
aI54
aI56
aI313
aI59
aI61
aI62
aI63
aI64
aI65
aI67
aI68
aI69
aI75
aI77
aI312
aI57
aI309
aI229
aI124
aI131
aI134
aI135
aI136
aI137
aI138
aI139
aI140
aI141
aI143
aI207
aI219
aI38
aI233
aI237
atRp74
sS'/usr/lib/python2.7/dist-packages/lxml/__init__.py'
p75
g3
((lp76
I3
aI5
atRp77
sS'/usr/lib/python2.7/unittest/result.py'
p78
g3
((lp79
I1
aI3
aI4
aI5
aI7
aI9
aI10
aI12
aI14
aI15
aI20
aI22
aI23
aI26
aI36
aI37
aI38
aI39
aI40
aI41
aI42
aI43
aI44
aI45
aI46
aI47
aI48
aI49
aI50
aI51
aI52
aI53
aI54
aI56
aI59
aI61
aI62
aI63
aI65
aI66
aI73
aI79
aI81
aI82
aI84
aI85
aI105
aI111
aI119
aI126
aI128
aI130
aI134
aI139
aI144
aI146
aI148
aI152
aI180
aI183
aI190
atRp80
sS'/usr/lib/python2.7/os.py'
p81
g3
((lp82
I36
aI37
aI38
aI39
atRp83
sS'/usr/lib/python2.7/rfc822.py'
p84
g3
((lp85
I526
aI535
aI547
aI71
aI74
aI76
aI77
aI78
aI80
aI82
aI270
aI86
aI88
aI90
aI605
aI97
aI98
aI99
aI100
aI102
aI108
aI110
aI116
aI122
aI637
aI661
aI679
aI197
aI716
aI204
aI205
aI206
aI720
aI209
aI724
aI728
aI217
aI219
aI226
aI228
aI747
aI250
aI770
aI771
aI772
aI779
aI782
aI785
aI794
aI285
aI801
aI292
aI293
aI295
aI809
aI816
aI820
aI829
aI830
aI831
aI320
aI833
aI841
aI842
aI843
aI844
aI333
aI846
aI850
aI355
aI367
aI382
aI832
aI386
aI390
aI403
aI935
aI424
aI943
aI435
aI439
aI952
aI443
aI446
aI450
aI454
aI461
aI845
aI977
aI472
aI482
aI487
aI496
aI506
aI508
aI85
atRp86
sS'/usr/local/lib/python2.7/dist-packages/figleaf-0.6.1-py2.7.egg/figleaf/__init__.py'
p87
g3
((lp88
I234
aI235
atRp89
sS'/usr/lib/python2.7/weakref.py'
p90
g3
((lp91
I262
aI244
aI245
aI249
aI250
atRp92
sS'/usr/lib/python2.7/ssl.py'
p93
g3
((lp94
I262
aI269
aI276
aI282
aI290
aI294
aI301
aI307
aI56
aI58
aI60
aI62
aI63
aI64
aI65
aI66
aI328
aI76
aI77
aI78
aI79
aI80
aI338
aI83
aI85
aI86
aI90
aI91
aI92
aI93
aI97
aI100
aI357
aI104
aI106
aI107
aI108
aI109
aI110
aI370
aI371
aI372
aI373
aI374
aI386
aI395
aI396
aI398
aI154
aI414
aI167
aI428
aI174
aI183
aI190
aI447
aI453
aI333
aI211
aI220
aI235
aI82
aI245
atRp95
sS'/usr/lib/python2.7/dist-packages/lxml/_elementpath.py'
p96
g3
((lp97
I260
aI261
aI262
aI263
aI264
aI265
aI270
aI285
aI286
aI291
aI56
aI58
aI59
aI70
aI71
aI72
aI73
aI82
aI85
aI93
aI100
aI101
aI102
aI103
aI105
aI106
aI107
aI109
aI110
aI113
aI114
aI115
aI117
aI119
aI127
aI209
aI210
aI211
aI212
aI213
aI214
aI215
aI218
aI222
aI224
aI226
aI227
aI228
aI229
aI230
aI233
aI235
aI236
aI237
aI241
aI242
aI243
aI244
aI245
aI248
aI249
aI250
aI252
aI253
aI254
aI255
atRp98
sS'/usr/lib/python2.7/fnmatch.py'
p99
g3
((lp100
I67
aI81
aI11
aI45
aI13
aI17
aI18
aI20
aI24
aI15
atRp101
sS'/usr/lib/python2.7/encodings/__init__.py'
p102
g3
((lp103
I140
aI144
aI145
aI146
aI147
aI154
aI64
aI69
aI74
aI75
aI85
aI86
aI87
aI88
aI92
aI93
aI94
aI96
aI99
aI100
aI104
aI108
aI109
aI114
aI120
aI121
atRp104
sS'/usr/lib/python2.7/pprint.py'
p105
g3
((lp106
I129
aI35
aI37
aI38
aI40
aI42
aI43
aI46
aI47
aI48
aI49
aI52
aI58
aI62
aI66
aI70
aI74
aI331
aI336
aI81
aI82
aI349
aI228
aI237
aI113
aI117
aI247
aI122
aI125
atRp107
sS'/usr/lib/python2.7/atexit.py'
p108
g3
((lp109
I6
aI8
aI10
aI12
aI13
aI37
aI46
aI47
aI49
aI52
aI54
atRp110
sS'/usr/lib/python2.7/hashlib.py'
p111
g3
((lp112
I128
aI129
aI130
aI135
aI138
aI139
aI66
aI145
aI146
aI94
aI95
aI96
aI99
aI101
aI63
aI106
aI113
aI55
aI59
aI61
aI127
atRp113
sS'/usr/lib/python2.7/sre_compile.py'
p114
g3
((lp115
I25
aI34
aI35
aI36
aI37
aI38
aI39
aI40
aI41
aI42
aI43
aI44
aI46
aI47
aI48
aI49
aI50
aI51
aI52
aI54
aI55
aI56
aI57
aI58
aI59
aI60
aI63
aI64
aI65
aI74
aI75
aI76
aI78
aI79
aI80
aI81
aI82
aI83
aI84
aI86
aI87
aI88
aI89
aI90
aI91
aI92
aI93
aI96
aI97
aI98
aI99
aI101
aI102
aI103
aI104
aI105
aI107
aI108
aI109
aI110
aI111
aI117
aI118
aI119
aI120
aI126
aI127
aI128
aI130
aI132
aI133
aI134
aI135
aI136
aI137
aI138
aI139
aI140
aI142
aI143
aI144
aI145
aI146
aI147
aI148
aI149
aI156
aI157
aI158
aI161
aI180
aI181
aI182
aI183
aI184
aI185
aI186
aI187
aI188
aI189
aI190
aI191
aI192
aI193
aI194
aI196
aI197
aI199
aI200
aI202
aI205
aI209
aI210
aI211
aI212
aI213
aI214
aI215
aI216
aI217
aI218
aI219
aI220
aI221
aI223
aI228
aI229
aI230
aI231
aI232
aI233
aI234
aI235
aI236
aI237
aI238
aI239
aI240
aI242
aI244
aI245
aI246
aI248
aI249
aI250
aI253
aI254
aI255
aI256
aI259
aI260
aI261
aI264
aI265
aI266
aI267
aI268
aI269
aI270
aI271
aI272
aI273
aI356
aI357
aI359
aI365
aI366
aI367
aI369
aI370
aI371
aI372
aI373
aI374
aI376
aI377
aI378
aI379
aI380
aI381
aI388
aI390
aI391
aI392
aI393
aI394
aI395
aI409
aI410
aI411
aI412
aI413
aI415
aI416
aI419
aI422
aI429
aI430
aI431
aI433
aI434
aI435
aI436
aI438
aI439
aI440
aI442
aI443
aI447
aI448
aI452
aI453
aI454
aI455
aI457
aI458
aI459
aI460
aI461
aI462
aI463
aI464
aI465
aI475
aI476
aI477
aI482
aI483
aI486
aI489
aI491
aI493
aI498
aI499
aI500
aI504
aI509
aI515
aI516
aI517
aI520
aI521
aI522
aI523
atRp116
sS'/usr/lib/python2.7/httplib.py'
p117
g3
((lp118
I67
aI69
aI70
aI71
aI72
aI73
aI74
aI75
aI76
aI79
aI81
aI82
aI86
aI87
aI88
aI89
aI90
aI91
aI93
aI94
aI96
aI99
aI100
aI101
aI105
aI106
aI107
aI110
aI111
aI112
aI113
aI114
aI115
aI116
aI117
aI118
aI121
aI122
aI123
aI124
aI125
aI126
aI127
aI130
aI131
aI132
aI133
aI134
aI135
aI136
aI137
aI138
aI139
aI140
aI141
aI142
aI143
aI144
aI145
aI146
aI147
aI148
aI149
aI150
aI151
aI154
aI155
aI156
aI157
aI158
aI159
aI160
aI161
aI164
aI165
aI166
aI168
aI169
aI170
aI171
aI172
aI173
aI174
aI176
aI177
aI178
aI179
aI180
aI181
aI182
aI183
aI185
aI186
aI187
aI188
aI189
aI190
aI191
aI192
aI193
aI194
aI195
aI196
aI197
aI198
aI199
aI200
aI201
aI202
aI204
aI205
aI206
aI207
aI208
aI209
aI213
aI216
aI218
aI220
aI222
aI223
aI224
aI229
aI234
aI262
aI263
aI264
aI265
aI266
aI267
aI268
aI269
aI271
aI273
aI274
aI280
aI281
aI283
aI287
aI290
aI291
aI298
aI301
aI303
aI304
aI305
aI307
aI308
aI309
aI325
aI335
aI336
aI339
aI347
aI348
aI349
aI351
aI354
aI355
aI356
aI358
aI359
aI360
aI361
aI363
aI365
aI366
aI368
aI372
aI373
aI382
aI392
aI393
aI394
aI398
aI400
aI401
aI406
aI407
aI408
aI409
aI421
aI422
aI423
aI425
aI426
aI432
aI439
aI440
aI445
aI448
aI449
aI450
aI451
aI456
aI460
aI461
aI470
aI473
aI474
aI475
aI481
aI486
aI487
aI488
aI491
aI492
aI493
aI516
aI517
aI518
aI519
aI521
aI532
aI533
aI534
aI536
aI540
aI541
aI568
aI569
aI570
aI571
aI572
aI573
aI574
aI575
aI577
aI578
aI580
aI581
aI587
aI588
aI589
aI591
aI595
aI601
aI602
aI605
aI606
aI610
aI611
aI612
aI614
aI618
aI619
aI622
aI624
aI626
aI645
aI646
aI647
aI648
aI650
aI651
aI652
aI654
aI657
aI662
aI669
aI671
aI672
aI674
aI675
aI676
aI677
aI678
aI680
aI681
aI682
aI683
aI684
aI685
aI686
aI687
aI688
aI689
aI690
aI691
aI693
aI694
aI697
aI710
aI711
aI712
aI713
aI714
aI724
aI725
aI727
aI728
aI730
aI731
aI733
aI754
aI756
aI757
aI759
aI762
aI764
aI765
aI766
aI767
aI770
aI772
aI774
aI775
aI776
aI780
aI782
aI783
aI790
aI792
aI797
aI799
aI805
aI806
aI807
aI811
aI814
aI815
aI820
aI831
aI853
aI854
aI859
aI860
aI862
aI864
aI866
aI869
aI915
aI916
aI928
aI930
aI935
aI938
aI939
aI941
aI950
aI951
aI954
aI956
aI958
aI960
aI977
aI979
aI980
aI981
aI982
aI983
aI986
aI988
aI990
aI991
aI992
aI994
aI998
aI1017
aI1020
aI1021
aI1022
aI1024
aI1027
aI1028
aI1030
aI1031
aI1032
aI1034
aI1036
aI1041
aI1044
aI1045
aI1047
aI1048
aI1050
aI1052
aI1054
aI1066
aI1081
aI1088
aI1092
aI1125
aI1135
aI1136
aI1140
aI1141
aI1143
aI1145
aI1146
aI1147
aI1153
aI1163
aI1165
aI1171
aI1173
aI1175
aI1176
aI1191
aI1198
aI1201
aI1203
aI1204
aI1206
aI1207
aI1209
aI1210
aI1214
aI1215
aI1217
aI1218
aI1220
aI1221
aI1225
aI1231
aI1234
aI1235
aI1237
aI1238
aI1240
aI1241
aI1243
aI1244
aI1246
aI1247
aI1253
aI1254
aI1259
aI1261
aI1262
aI1269
aI1276
aI1279
aI1288
aI1310
aI1318
atRp119
sS'/usr/lib/python2.7/unittest/suite.py'
p120
g3
((lp121
I1
aI3
aI5
aI6
aI8
aI11
aI12
aI13
aI16
aI18
aI19
aI20
aI21
aI23
aI26
aI31
aI35
aI37
aI38
aI40
aI46
aI48
aI50
aI54
aI56
aI57
aI59
aI60
aI62
aI69
aI70
aI72
aI78
aI86
aI88
aI89
aI90
aI91
aI93
aI94
aI97
aI98
aI99
aI100
aI101
aI103
aI104
aI107
aI108
aI112
aI113
aI114
aI115
aI116
aI118
aI125
aI126
aI127
aI128
aI130
aI132
aI135
aI136
aI142
aI143
aI144
aI145
aI146
aI155
aI157
aI158
aI159
aI160
aI161
aI162
aI165
aI166
aI167
aI168
aI171
aI173
aI174
aI175
aI178
aI179
aI192
aI200
aI201
aI202
aI203
aI204
aI207
aI208
aI212
aI213
aI225
aI226
aI227
aI228
aI230
aI232
aI234
aI237
aI238
aI239
aI240
aI241
aI249
aI252
aI257
aI262
aI264
aI267
aI270
aI273
aI276
aI279
aI284
aI287
aI290
aI292
aI293
aI294
aI295
aI296
aI299
aI300
aI301
aI302
aI303
atRp122
sS'/usr/lib/python2.7/unittest/util.py'
p123
g3
((lp124
I1
aI2
aI5
aI7
aI8
aI142
aI18
aI19
aI21
aI98
aI100
aI135
aI62
atRp125
sS'/usr/lib/python2.7/sre_parse.py'
p126
g3
((lp127
I68
aI69
aI70
aI71
aI73
aI74
aI75
aI81
aI82
aI84
aI86
aI91
aI92
aI93
aI94
aI95
aI127
aI131
aI132
aI133
aI135
aI139
aI142
aI143
aI144
aI145
aI146
aI147
aI148
aI149
aI150
aI151
aI152
aI153
aI154
aI155
aI156
aI157
aI161
aI162
aI163
aI164
aI165
aI166
aI167
aI168
aI169
aI170
aI171
aI172
aI174
aI175
aI179
aI180
aI181
aI183
aI184
aI185
aI186
aI187
aI188
aI189
aI192
aI193
aI194
aI196
aI197
aI198
aI199
aI200
aI202
aI203
aI204
aI206
aI208
aI227
aI228
aI229
aI230
aI231
aI232
aI233
aI234
aI235
aI243
aI249
aI251
aI252
aI259
aI260
aI261
aI262
aI263
aI264
aI265
aI266
aI267
aI274
aI279
aI281
aI289
aI290
aI291
aI293
aI295
aI296
aI304
aI305
aI306
aI307
aI308
aI309
aI310
aI311
aI312
aI313
aI314
aI318
aI319
aI321
aI322
aI325
aI326
aI327
aI328
aI330
aI331
aI332
aI333
aI341
aI344
aI345
aI346
aI357
aI358
aI381
aI384
aI385
aI386
aI387
aI388
aI389
aI390
aI391
aI393
aI395
aI396
aI397
aI398
aI399
aI401
aI412
aI413
aI415
aI417
aI418
aI421
aI422
aI424
aI425
aI426
aI427
aI428
aI429
aI430
aI431
aI432
aI435
aI437
aI438
aI444
aI445
aI448
aI449
aI451
aI452
aI453
aI455
aI459
aI460
aI461
aI464
aI466
aI467
aI470
aI472
aI474
aI475
aI476
aI477
aI479
aI480
aI481
aI482
aI485
aI486
aI487
aI488
aI490
aI494
aI495
aI496
aI497
aI498
aI508
aI509
aI512
aI514
aI516
aI517
aI519
aI521
aI522
aI524
aI525
aI526
aI527
aI528
aI529
aI531
aI568
aI570
aI571
aI580
aI582
aI583
aI584
aI589
aI590
aI592
aI595
aI596
aI623
aI625
aI627
aI629
aI630
aI633
aI634
aI636
aI637
aI638
aI648
aI649
aI651
aI652
aI654
aI655
aI656
aI661
aI666
aI668
aI669
aI670
aI671
aI673
aI675
aI676
aI678
aI681
aI684
aI689
atRp128
sS'/usr/lib/python2.7/gzip.py'
p129
g3
((lp130
I512
aI4
aI133
aI8
aI9
aI10
aI11
aI13
aI15
aI141
aI17
aI19
aI404
aI407
aI152
aI410
aI27
aI159
aI36
aI40
aI145
aI42
aI43
aI45
aI46
aI178
aI182
aI323
aI389
aI331
aI269
aI401
aI24
aI215
aI474
aI355
aI273
aI359
aI236
aI434
aI374
aI381
atRp131
sS'/usr/lib/python2.7/codecs.py'
p132
g3
((lp133
I79
aI80
aI81
aI82
aI83
aI84
aI85
aI86
aI87
atRp134
sS'/usr/lib/python2.7/unittest/signals.py'
p135
g3
((lp136
I1
aI2
aI4
aI6
aI9
aI10
aI14
aI27
aI28
aI29
aI31
aI34
aI35
aI43
atRp137
sS'/usr/lib/python2.7/tokenize.py'
p138
g3
((lp139
I23
aI25
aI26
aI29
aI30
aI32
aI33
aI34
aI35
aI36
aI38
aI39
aI40
aI41
aI42
aI44
aI45
aI46
aI48
aI49
aI50
aI51
aI53
aI54
aI55
aI56
aI57
aI58
aI59
aI60
aI61
aI62
aI63
aI66
aI68
aI70
aI72
aI73
aI75
aI76
aI81
aI82
aI83
aI84
aI86
aI87
aI88
aI90
aI91
aI94
aI95
aI96
aI97
aI98
aI99
aI101
aI102
aI103
aI104
aI105
aI106
aI107
aI108
aI109
aI110
aI111
aI112
aI113
aI114
aI115
aI116
aI117
aI118
aI119
aI120
aI122
aI123
aI130
aI131
aI132
aI133
aI140
aI141
aI143
aI145
aI147
aI149
aI155
aI174
aI178
aI180
aI185
aI192
aI206
aI243
aI264
aI419
atRp140
sS'<string>'
p141
g3
((lp142
I1
aI2
aI4
aI6
aI8
aI10
aI12
aI13
aI20
aI24
aI28
aI30
aI37
aI41
aI42
aI43
aI44
aI45
atRp143
sS'/usr/lib/python2.7/inspect.py'
p144
g3
((lp145
I1025
aI518
aI1036
aI1047
aI1048
aI25
aI1052
aI29
aI30
aI32
aI33
aI34
aI35
aI36
aI37
aI38
aI39
aI40
aI41
aI42
aI45
aI46
aI48
aI51
aI59
aI67
aI585
aI78
aI98
aI108
aI110
aI630
aI632
aI633
aI634
aI125
aI127
aI641
aI705
aI142
aI155
aI673
aI164
aI682
aI181
aI695
aI191
aI1056
aI715
aI209
aI227
aI741
aI743
aI236
aI243
aI247
aI261
aI263
aI801
aI803
aI819
aI821
aI831
aI837
aI844
aI845
aI846
aI847
aI848
aI849
aI340
aI350
aI355
aI871
aI872
aI873
aI874
aI875
aI369
aI894
aI398
aI422
aI424
aI435
aI440
aI332
aI460
aI469
aI470
aI472
aI985
aI987
aI1020
atRp146
sS'/usr/lib/python2.7/mimetools.py'
p147
g3
((lp148
I1
aI4
aI5
aI6
aI7
aI8
aI9
aI11
aI13
aI14
aI15
aI17
aI18
aI20
aI22
aI24
aI25
aI27
aI29
aI30
aI31
aI33
aI34
aI35
aI37
aI42
aI43
aI44
aI45
aI46
aI47
aI48
aI50
aI51
aI52
aI53
aI68
aI71
aI79
aI87
aI92
aI95
aI98
aI107
aI108
aI111
aI112
aI114
aI115
aI123
aI125
aI157
aI176
aI204
aI206
aI207
aI208
aI209
aI210
aI211
aI212
aI215
aI216
aI217
aI218
aI219
aI220
aI221
aI224
aI229
aI239
aI245
atRp149
sS'/usr/lib/python2.7/base64.py'
p150
g3
((lp151
I259
aI8
aI9
aI10
aI15
aI17
aI18
aI3
aI20
aI25
aI282
aI283
aI28
aI29
aI32
aI42
aI300
aI310
aI59
aI319
aI326
aI79
aI86
aI95
aI352
aI359
aI103
aI117
aI118
aI119
aI120
aI121
aI122
aI123
aI124
aI125
aI126
aI129
aI130
aI131
aI132
aI135
aI285
aI177
aI251
atRp152
sS'/usr/lib/python2.7/io.py'
p153
g3
((lp154
I34
aI46
aI53
aI54
aI55
aI56
aI57
aI60
aI61
aI63
aI68
aI71
aI72
aI73
aI78
aI79
aI81
aI82
aI84
aI85
aI87
aI88
aI90
aI92
aI93
aI94
aI96
aI97
aI98
atRp155
sS'/usr/lib/python2.7/socket.py'
p156
g3
((lp157
I526
aI527
aI529
aI530
aI531
aI532
aI533
aI535
aI537
aI538
aI551
aI552
aI553
aI554
aI555
aI556
aI45
aI558
aI47
aI560
aI49
aI50
aI563
aI52
aI53
aI58
aI67
aI68
aI82
aI84
aI85
aI89
aI90
aI93
aI94
aI96
aI97
aI100
aI103
aI124
aI151
aI152
aI153
aI154
aI156
aI159
aI164
aI165
aI167
aI168
aI169
aI172
aI173
aI179
aI181
aI183
aI185
aI186
aI187
aI188
aI189
aI190
aI192
aI193
aI195
aI196
aI197
aI198
aI199
aI201
aI204
aI206
aI212
aI217
aI219
aI220
aI221
aI223
aI224
aI226
aI227
aI228
aI229
aI230
aI231
aI233
aI235
aI236
aI238
aI239
aI241
aI243
aI244
aI246
aI247
aI248
aI249
aI250
aI251
aI252
aI256
aI258
aI261
aI262
aI267
aI268
aI269
aI270
aI557
aI272
aI274
aI276
aI277
aI278
aI279
aI281
aI282
aI283
aI285
aI286
aI287
aI48
aI292
aI293
aI562
aI312
aI315
aI326
aI336
aI340
aI344
aI345
aI346
aI362
aI363
aI365
aI366
aI367
aI368
aI369
aI406
aI407
aI408
aI409
aI411
aI412
aI413
aI414
aI415
aI416
aI418
aI420
aI443
aI444
aI445
aI446
aI447
aI452
aI453
aI454
aI455
aI456
aI457
aI458
aI459
aI460
aI462
aI511
atRp158
sS'/usr/lib/python2.7/token.py'
p159
g3
((lp160
I3
aI13
aI14
aI15
aI16
aI17
aI18
aI19
aI20
aI21
aI22
aI23
aI24
aI25
aI26
aI27
aI28
aI29
aI30
aI31
aI32
aI33
aI34
aI35
aI36
aI37
aI38
aI39
aI40
aI41
aI42
aI43
aI44
aI45
aI46
aI47
aI48
aI49
aI50
aI51
aI52
aI53
aI54
aI55
aI56
aI57
aI58
aI59
aI60
aI61
aI62
aI63
aI64
aI65
aI66
aI67
aI70
aI71
aI72
aI73
aI74
aI77
aI80
aI83
aI87
aI141
atRp161
sS'/usr/lib/python2.7/unittest/case.py'
p162
g3
((lp163
I1
aI3
aI4
aI5
aI6
aI513
aI8
aI9
aI1034
aI523
aI12
aI1038
aI1041
aI18
aI1044
aI21
aI24
aI86
aI1053
aI30
aI31
aI1056
aI33
aI1060
aI1030
aI38
aI1064
aI7
aI44
aI47
aI48
aI561
aI50
aI53
aI11
aI69
aI77
aI597
aI598
aI599
aI600
aI601
aI753
aI605
aI606
aI97
aI98
aI611
aI100
aI613
aI614
aI615
aI616
aI105
aI618
aI619
aI108
aI621
aI617
aI132
aI152
aI158
aI164
aI796
aI170
aI174
aI178
aI180
aI185
aI186
aI187
aI188
aI192
aI193
aI198
aI199
aI200
aI201
aI202
aI203
aI204
aI206
aI724
aI730
aI219
aI221
aI229
aI742
aI231
aI233
aI235
aI237
aI40
aI245
aI248
aI251
aI258
aI259
aI262
aI265
aI271
aI274
aI277
aI278
aI280
aI284
aI803
aI293
aI294
aI295
aI810
aI301
aI302
aI304
aI305
aI306
aI823
aI315
aI316
aI317
aI318
aI835
aI326
aI327
aI1068
aI861
aI353
aI355
aI356
aI363
aI364
aI365
aI366
aI368
aI369
aI374
aI377
aI378
aI379
aI388
aI901
aI390
aI391
aI393
aI402
aI406
aI410
aI412
aI416
aI930
aI422
aI241
aI936
aI924
aI942
aI948
aI954
aI444
aI960
aI967
aI974
aI473
aI817
aI991
aI1000
aI499
aI1014
aI506
aI1021
aI1023
atRp164
sS'/usr/lib/python2.7/functools.py'
p165
g3
((lp166
I32
aI98
aI82
aI83
aI84
aI85
aI86
aI88
aI90
aI92
aI94
aI96
aI33
aI34
aI35
aI100
aI37
aI50
aI51
atRp167
s.