(dp1
S'files'
p2
(dp3
S'_usr_share_pyshared_chardet_mbcssm'
p4
(dp5
S'index'
p6
(dp7
S'html_filename'
p8
S'_usr_share_pyshared_chardet_mbcssm.html'
p9
sS'name'
p10
S'/usr/share/pyshared/chardet/mbcssm'
p11
sS'nums'
p12
ccopy_reg
_reconstructor
p13
(ccoverage.results
Numbers
p14
c__builtin__
object
p15
NtRp16
(dp17
S'n_files'
p18
I1
sS'n_branches'
p19
I0
sS'n_statements'
p20
I37
sS'n_excluded'
p21
I0
sS'n_partial_branches'
p22
I0
sS'n_missing'
p23
I0
sS'n_missing_branches'
p24
I0
sbssS'hash'
p25
S'\x1ab\xcdK\x88C\x83(\xd6\xcb\xc8\xc7\x15\xc1\xbf\x9e'
p26
ssS'_usr_share_pyshared_chardet_langthaimodel'
p27
(dp28
g6
(dp29
g8
S'_usr_share_pyshared_chardet_langthaimodel.html'
p30
sg10
S'/usr/share/pyshared/chardet/langthaimodel'
p31
sg12
g13
(g14
g15
NtRp32
(dp33
g18
I1
sg19
I0
sg20
I4
sg21
I0
sg22
I0
sg23
I0
sg24
I0
sbssg25
S'o\xda?\xcf\x14\x0c\xfd\xaa<\xb6n\xd7\xc1\xb0\x0f3'
p34
ssS'_usr_share_pyshared_chardet_langbulgarianmodel'
p35
(dp36
g6
(dp37
g8
S'_usr_share_pyshared_chardet_langbulgarianmodel.html'
p38
sg10
S'/usr/share/pyshared/chardet/langbulgarianmodel'
p39
sg12
g13
(g14
g15
NtRp40
(dp41
g18
I1
sg19
I0
sg20
I6
sg21
I0
sg22
I0
sg23
I0
sg24
I0
sbssg25
S'\xad\xc8:\x15\x80\xb0\xec\xb3Ph\xce\xfb*h_\x89'
p42
ssS'_usr_share_pyshared_chardet_escprober'
p43
(dp44
g6
(dp45
g8
S'_usr_share_pyshared_chardet_escprober.html'
p46
sg10
S'/usr/share/pyshared/chardet/escprober'
p47
sg12
g13
(g14
g15
NtRp48
(dp49
g18
I1
sg19
I0
sg20
I40
sg21
I0
sg22
I0
sg23
I30
sg24
I0
sbssg25
S'\xfax\xa2\x8ev\xfd\xecV\xe3\x92\xbe\xd6\xa5#]\xb2'
p50
ssS'_usr_share_pyshared_chardet_euctwprober'
p51
(dp52
g6
(dp53
g8
S'_usr_share_pyshared_chardet_euctwprober.html'
p54
sg10
S'/usr/share/pyshared/chardet/euctwprober'
p55
sg12
g13
(g14
g15
NtRp56
(dp57
g18
I1
sg19
I0
sg20
I12
sg21
I0
sg22
I0
sg23
I1
sg24
I0
sbssg25
S'\x85U\xef\x8a\x0eR\xfd\xc4\xfa\xce\x19$n\t\x98\x9a'
p58
ssS'_usr_share_pyshared_chardet_gb2312prober'
p59
(dp60
g6
(dp61
g8
S'_usr_share_pyshared_chardet_gb2312prober.html'
p62
sg10
S'/usr/share/pyshared/chardet/gb2312prober'
p63
sg12
g13
(g14
g15
NtRp64
(dp65
g18
I1
sg19
I0
sg20
I12
sg21
I0
sg22
I0
sg23
I1
sg24
I0
sbssg25
S'\xc2\xeb\xcd\xf2\x95*^\xe5h\xddL\xa5\xa4\xe9\xa2\xc4'
p66
ssS'_usr_share_pyshared_chardet_latin1prober'
p67
(dp68
g6
(dp69
g8
S'_usr_share_pyshared_chardet_latin1prober.html'
p70
sg10
S'/usr/share/pyshared/chardet/latin1prober'
p71
sg12
g13
(g14
g15
NtRp72
(dp73
g18
I1
sg19
I0
sg20
I47
sg21
I0
sg22
I0
sg23
I9
sg24
I0
sbssg25
S'4\xa8\x1a\xf3\x9dr\x97NaV\n5Lv\x0b\xad'
p74
ssS'_usr_share_pyshared_chardet_euctwfreq'
p75
(dp76
g6
(dp77
g8
S'_usr_share_pyshared_chardet_euctwfreq.html'
p78
sg10
S'/usr/share/pyshared/chardet/euctwfreq'
p79
sg12
g13
(g14
g15
NtRp80
(dp81
g18
I1
sg19
I0
sg20
I3
sg21
I0
sg22
I0
sg23
I0
sg24
I0
sbssg25
S' =\xab\x92\xac\x9ebq\xc7\xf9\xb8\xd7\xd4qA?'
p82
ssS'_usr_local_lib_python2_7_dist-packages_BeautifulSoup'
p83
(dp84
g6
(dp85
g8
S'_usr_local_lib_python2_7_dist-packages_BeautifulSoup.html'
p86
sg10
S'/usr/local/lib/python2.7/dist-packages/BeautifulSoup'
p87
sg12
g13
(g14
g15
NtRp88
(dp89
g18
I1
sg19
I0
sg20
I1047
sg21
I0
sg22
I0
sg23
I446
sg24
I0
sbssg25
S'\xd7(k\xaf\xa5\xcd,\x17:\xddJ\x1a\xb9\xac\x9d\xee'
p90
ssS'_usr_share_pyshared_chardet_utf8prober'
p91
(dp92
g6
(dp93
g8
S'_usr_share_pyshared_chardet_utf8prober.html'
p94
sg10
S'/usr/share/pyshared/chardet/utf8prober'
p95
sg12
g13
(g14
g15
NtRp96
(dp97
g18
I1
sg19
I0
sg20
I40
sg21
I0
sg22
I0
sg23
I7
sg24
I0
sbssg25
S'\xbd\xff\xe8\xfe}\xa2BNo\xa3G+?\x1f\xbeP'
p98
ssS'_usr_share_pyshared_chardet_big5prober'
p99
(dp100
g6
(dp101
g8
S'_usr_share_pyshared_chardet_big5prober.html'
p102
sg10
S'/usr/share/pyshared/chardet/big5prober'
p103
sg12
g13
(g14
g15
NtRp104
(dp105
g18
I1
sg19
I0
sg20
I12
sg21
I0
sg22
I0
sg23
I1
sg24
I0
sbssg25
S"\xec\xca\xa4'\xb6\x16\xed\xa2\xf9\x14\xb6q3y\xac\xf1"
p106
ssS'_usr_share_pyshared_chardet_codingstatemachine'
p107
(dp108
g6
(dp109
g8
S'_usr_share_pyshared_chardet_codingstatemachine.html'
p110
sg10
S'/usr/share/pyshared/chardet/codingstatemachine'
p111
sg12
g13
(g14
g15
NtRp112
(dp113
g18
I1
sg19
I0
sg20
I21
sg21
I0
sg22
I0
sg23
I1
sg24
I0
sbssg25
S'\xcf\x8fl\xe1K4\xd3\x19\x0f\x0c?[\xa3\xab:\xf1'
p114
ssS'_usr_share_pyshared_chardet_escsm'
p115
(dp116
g6
(dp117
g8
S'_usr_share_pyshared_chardet_escsm.html'
p118
sg10
S'/usr/share/pyshared/chardet/escsm'
p119
sg12
g13
(g14
g15
NtRp120
(dp121
g18
I1
sg19
I0
sg20
I17
sg21
I0
sg22
I0
sg23
I0
sg24
I0
sbssg25
S'\x8dJ\xe56\x91G\xd3_\xb1\x15;\x84\xd0\x0c\xe68'
p122
ssS'_usr_share_pyshared_lxml__elementpath'
p123
(dp124
S'index'
p125
(dp126
S'html_filename'
p127
S'_usr_share_pyshared_lxml__elementpath.html'
p128
sS'name'
p129
S'/usr/share/pyshared/lxml/_elementpath'
p130
sS'nums'
p131
g13
(g14
g15
NtRp132
(dp133
g18
I1
sg19
I0
sg20
I175
sg21
I0
sg22
I0
sg23
I115
sg24
I0
sbssS'hash'
p134
S'\x8b\x03r*\xe1\x1cb\xbb\xfaM\xebT\xc1\x9bA|'
p135
ssS'_usr_share_pyshared_chardet_eucjpprober'
p136
(dp137
g6
(dp138
g8
S'_usr_share_pyshared_chardet_eucjpprober.html'
p139
sg10
S'/usr/share/pyshared/chardet/eucjpprober'
p140
sg12
g13
(g14
g15
NtRp141
(dp142
g18
I1
sg19
I0
sg20
I48
sg21
I0
sg22
I0
sg23
I25
sg24
I0
sbssg25
S'\xb8?g\x1b\xbf\x0b\x13\xa7\xe6\x07\x07\xf2\xc82[^'
p143
ssS'_usr_share_pyshared_chardet_langhebrewmodel'
p144
(dp145
g6
(dp146
g8
S'_usr_share_pyshared_chardet_langhebrewmodel.html'
p147
sg10
S'/usr/share/pyshared/chardet/langhebrewmodel'
p148
sg12
g13
(g14
g15
NtRp149
(dp150
g18
I1
sg19
I0
sg20
I4
sg21
I0
sg22
I0
sg23
I0
sg24
I0
sbssg25
S'm\x95$\xa0\xc8\x8b<\xee\x17~;\xbe\x87:\xf7l'
p151
ssS'_usr_share_pyshared_chardet_gb2312freq'
p152
(dp153
g6
(dp154
g8
S'_usr_share_pyshared_chardet_gb2312freq.html'
p155
sg10
S'/usr/share/pyshared/chardet/gb2312freq'
p156
sg12
g13
(g14
g15
NtRp157
(dp158
g18
I1
sg19
I0
sg20
I3
sg21
I0
sg22
I0
sg23
I0
sg24
I0
sbssg25
S'o\x0bb1aa\xf9J\x86\xfc\xd2y\r\xd9\x8b\x0b'
p159
ssS'_usr_share_pyshared_chardet_charsetgroupprober'
p160
(dp161
g6
(dp162
g8
S'_usr_share_pyshared_chardet_charsetgroupprober.html'
p163
sg10
S'/usr/share/pyshared/chardet/charsetgroupprober'
p164
sg12
g13
(g14
g15
NtRp165
(dp166
g18
I1
sg19
I0
sg20
I60
sg21
I0
sg22
I0
sg23
I14
sg24
I0
sbssg25
S'\x1f\xba\x16\xce\rg\xd6\xafs\xed\xf0\xe9v\xbf\xb0{'
p167
ssS'_usr_share_pyshared_chardet_langcyrillicmodel'
p168
(dp169
g6
(dp170
g8
S'_usr_share_pyshared_chardet_langcyrillicmodel.html'
p171
sg10
S'/usr/share/pyshared/chardet/langcyrillicmodel'
p172
sg12
g13
(g14
g15
NtRp173
(dp174
g18
I1
sg19
I0
sg20
I14
sg21
I0
sg22
I0
sg23
I0
sg24
I0
sbssg25
S'\xe9\xa1k\x1d~\xe3L\xaf4f\x9a\xf0e\xbf,\\'
p175
ssS'_usr_share_pyshared_chardet_sbcsgroupprober'
p176
(dp177
g6
(dp178
g8
S'_usr_share_pyshared_chardet_sbcsgroupprober.html'
p179
sg10
S'/usr/share/pyshared/chardet/sbcsgroupprober'
p180
sg12
g13
(g14
g15
NtRp181
(dp182
g18
I1
sg19
I0
sg20
I20
sg21
I0
sg22
I0
sg23
I0
sg24
I0
sbssg25
S'\x13f\xff\xb4a\x04\x8b|\xab\xe3\xa0\x05\xc4\x16B}'
p183
ssS'_usr_share_pyshared_chardet___init__'
p184
(dp185
g6
(dp186
g8
S'_usr_share_pyshared_chardet___init__.html'
p187
sg10
S'/usr/share/pyshared/chardet/__init__'
p188
sg12
g13
(g14
g15
NtRp189
(dp190
g18
I1
sg19
I0
sg20
I8
sg21
I0
sg22
I0
sg23
I0
sg24
I0
sbssg25
S'\xb9[9\xbb\xf5\xf5\xb3\xb3\xcc\xc7\xd4\x8c\x96Z\x18\xd3'
p191
ssS'_usr_share_pyshared_chardet_jisfreq'
p192
(dp193
g6
(dp194
g8
S'_usr_share_pyshared_chardet_jisfreq.html'
p195
sg10
S'/usr/share/pyshared/chardet/jisfreq'
p196
sg12
g13
(g14
g15
NtRp197
(dp198
g18
I1
sg19
I0
sg20
I3
sg21
I0
sg22
I0
sg23
I0
sg24
I0
sbssg25
S'\xd3\xa4$\xc26]\x03\x8cM\x0b\x98\x81\xfaO\xadG'
p199
ssS'_usr_share_pyshared_chardet_mbcsgroupprober'
p200
(dp201
g6
(dp202
g8
S'_usr_share_pyshared_chardet_mbcsgroupprober.html'
p203
sg10
S'/usr/share/pyshared/chardet/mbcsgroupprober'
p204
sg12
g13
(g14
g15
NtRp205
(dp206
g18
I1
sg19
I0
sg20
I13
sg21
I0
sg22
I0
sg23
I0
sg24
I0
sbssg25
S'\xd9\xd7\xf2\xf0\xfe\x9e\x15\xa0\xd9\x92wL\xe2\xc4\xc01'
p207
ssS'_usr_share_pyshared_chardet_langhungarianmodel'
p208
(dp209
g6
(dp210
g8
S'_usr_share_pyshared_chardet_langhungarianmodel.html'
p211
sg10
S'/usr/share/pyshared/chardet/langhungarianmodel'
p212
sg12
g13
(g14
g15
NtRp213
(dp214
g18
I1
sg19
I0
sg20
I6
sg21
I0
sg22
I0
sg23
I0
sg24
I0
sbssg25
S'7\x17f\xd9\xcc\xf4\x8d~i_\xd5\xe6M[kJ'
p215
ssS'_usr_share_pyshared_chardet_charsetprober'
p216
(dp217
g6
(dp218
g8
S'_usr_share_pyshared_chardet_charsetprober.html'
p219
sg10
S'/usr/share/pyshared/chardet/charsetprober'
p220
sg12
g13
(g14
g15
NtRp221
(dp222
g18
I1
sg19
I0
sg20
I22
sg21
I0
sg22
I0
sg23
I2
sg24
I0
sbssg25
S'\x97\x0b\x95x\x81\t\rM\x91\xda\xf8\xa8\x95v\xdeb'
p223
ssS'_usr_share_pyshared_chardet_mbcharsetprober'
p224
(dp225
g6
(dp226
g8
S'_usr_share_pyshared_chardet_mbcharsetprober.html'
p227
sg10
S'/usr/share/pyshared/chardet/mbcharsetprober'
p228
sg12
g13
(g14
g15
NtRp229
(dp230
g18
I1
sg19
I0
sg20
I43
sg21
I0
sg22
I0
sg23
I23
sg24
I0
sbssg25
S':8\xecc\xbf\xacP\xf2\xa1\xd3T\xd9\r\xb1\x08\x8e'
p231
ssS'_usr_share_pyshared_chardet_sjisprober'
p232
(dp233
g6
(dp234
g8
S'_usr_share_pyshared_chardet_sjisprober.html'
p235
sg10
S'/usr/share/pyshared/chardet/sjisprober'
p236
sg12
g13
(g14
g15
NtRp237
(dp238
g18
I1
sg19
I0
sg20
I48
sg21
I0
sg22
I0
sg23
I25
sg24
I0
sbssg25
S'\xa6:\x10\xe8\xf5\xf2\x0b\x800\x15\xb9\x10KUu\xd2'
p239
ssS'_usr_share_pyshared_chardet_universaldetector'
p240
(dp241
g6
(dp242
g8
S'_usr_share_pyshared_chardet_universaldetector.html'
p243
sg10
S'/usr/share/pyshared/chardet/universaldetector'
p244
sg12
g13
(g14
g15
NtRp245
(dp246
g18
I1
sg19
I0
sg20
I99
sg21
I0
sg22
I0
sg23
I31
sg24
I0
sbssg25
S'\x1f\xc29|\x0fa\xb5\xe6\xeb\xb7>\x06\xfb\x9f\xd2\xd8'
p247
ssS'_usr_share_pyshared_chardet_big5freq'
p248
(dp249
g6
(dp250
g8
S'_usr_share_pyshared_chardet_big5freq.html'
p251
sg10
S'/usr/share/pyshared/chardet/big5freq'
p252
sg12
g13
(g14
g15
NtRp253
(dp254
g18
I1
sg19
I0
sg20
I3
sg21
I0
sg22
I0
sg23
I0
sg24
I0
sbssg25
S'j\xc4\xd0\xf3~[[\xb6\x84\xf0\xf9\xb1\x97\x9d\x86\xbb'
p255
ssS'_usr_share_pyshared_lxml___init__'
p256
(dp257
g125
(dp258
S'html_filename'
p259
S'_usr_share_pyshared_lxml___init__.html'
p260
sS'name'
p261
S'/usr/share/pyshared/lxml/__init__'
p262
sS'nums'
p263
g13
(g14
g15
NtRp264
(dp265
g18
I1
sg19
I0
sg20
I8
sg21
I0
sg22
I0
sg23
I6
sg24
I0
sbssg134
S'\x83\x85\x8ee>CD\xf9b\xc3\xefK\x9c\xe8+\xed'
p266
ssS'allegro_api'
p267
(dp268
g6
(dp269
S'html_filename'
p270
S'allegro_api.html'
p271
sS'name'
p272
S'allegro_api'
p273
sS'nums'
p274
g13
(g14
g15
NtRp275
(dp276
g18
I1
sg19
I0
sg20
I34
sg21
I0
sg22
I0
sg23
I1
sg24
I0
sbssg25
S'gT\x1a\x80\xeee\xe9\xd3\xd4b<\xaa;\xb6\xfeH'
p277
ssS'nokaut_api'
p278
(dp279
g125
(dp280
S'html_filename'
p281
S'nokaut_api.html'
p282
sS'name'
p283
S'nokaut_api'
p284
sS'nums'
p285
g13
(g14
g15
NtRp286
(dp287
g18
I1
sg19
I0
sg20
I37
sg21
I0
sg22
I0
sg23
I1
sg24
I0
sbssg134
S'\x85\xe0\xee;\x15\x80\x9b\x86Hv\xefL\x82\x85\xff\xe1'
p288
ssS'_usr_share_pyshared_chardet_euckrprober'
p289
(dp290
g6
(dp291
g8
S'_usr_share_pyshared_chardet_euckrprober.html'
p292
sg10
S'/usr/share/pyshared/chardet/euckrprober'
p293
sg12
g13
(g14
g15
NtRp294
(dp295
g18
I1
sg19
I0
sg20
I12
sg21
I0
sg22
I0
sg23
I1
sg24
I0
sbssg25
S'\xb6m4k\xab\x8b\x06\x17\xce\xcf\x00\x06u#\xd1\xcd'
p296
ssS'test_nokaut_api'
p297
(dp298
S'index'
p299
(dp300
S'html_filename'
p301
S'test_nokaut_api.html'
p302
sS'name'
p303
S'test_nokaut_api'
p304
sS'nums'
p305
g13
(g14
g15
NtRp306
(dp307
g18
I1
sg19
I0
sg20
I27
sg21
I0
sg22
I0
sg23
I0
sg24
I0
sbssS'hash'
p308
S'oD4\xd3U\xf6\xca\xde"\xb2\x88q\x16L{\xfe'
p309
ssS'_usr_share_pyshared_chardet_jpcntx'
p310
(dp311
g6
(dp312
g8
S'_usr_share_pyshared_chardet_jpcntx.html'
p313
sg10
S'/usr/share/pyshared/chardet/jpcntx'
p314
sg12
g13
(g14
g15
NtRp315
(dp316
g18
I1
sg19
I0
sg20
I62
sg21
I0
sg22
I0
sg23
I36
sg24
I0
sbssg25
S'\xe5yB\xc9S\x87\xcc\xa5\x93\x12%\xb8\x12f\x0e\xd3'
p317
ssS'_usr_share_pyshared_chardet_hebrewprober'
p318
(dp319
g6
(dp320
g8
S'_usr_share_pyshared_chardet_hebrewprober.html'
p321
sg10
S'/usr/share/pyshared/chardet/hebrewprober'
p322
sg12
g13
(g14
g15
NtRp323
(dp324
g18
I1
sg19
I0
sg20
I68
sg21
I0
sg22
I0
sg23
I18
sg24
I0
sbssg25
S'K*\x01\xf5\xe0n\x10R*^\xdc\x04/\x86\xb3\xe9'
p325
ssS'_usr_share_pyshared_chardet_constants'
p326
(dp327
g6
(dp328
g8
S'_usr_share_pyshared_chardet_constants.html'
p329
sg10
S'/usr/share/pyshared/chardet/constants'
p330
sg12
g13
(g14
g15
NtRp331
(dp332
g18
I1
sg19
I0
sg20
I14
sg21
I0
sg22
I0
sg23
I2
sg24
I0
sbssg25
S'\xae-\x12\xa5\xfe\xc8-1\xef\xc7T\xe00\xa8yg'
p333
ssS'_usr_share_pyshared_chardet_langgreekmodel'
p334
(dp335
g6
(dp336
g8
S'_usr_share_pyshared_chardet_langgreekmodel.html'
p337
sg10
S'/usr/share/pyshared/chardet/langgreekmodel'
p338
sg12
g13
(g14
g15
NtRp339
(dp340
g18
I1
sg19
I0
sg20
I6
sg21
I0
sg22
I0
sg23
I0
sg24
I0
sbssg25
S'\x85\xc8\x1c\xb5\xeb\x85\x80k\x90\xad\xae\xf3\x94\xe3\xd8\x9a'
p341
ssS'_usr_share_pyshared_chardet_euckrfreq'
p342
(dp343
g6
(dp344
g8
S'_usr_share_pyshared_chardet_euckrfreq.html'
p345
sg10
S'/usr/share/pyshared/chardet/euckrfreq'
p346
sg12
g13
(g14
g15
NtRp347
(dp348
g18
I1
sg19
I0
sg20
I3
sg21
I0
sg22
I0
sg23
I0
sg24
I0
sbssg25
S']\x92\x91\x94\x91\x92\xfe\xd9c4{R\xf9\xb7\xfd\x00'
p349
ssS'_usr_share_pyshared_chardet_chardistribution'
p350
(dp351
g6
(dp352
g8
S'_usr_share_pyshared_chardet_chardistribution.html'
p353
sg10
S'/usr/share/pyshared/chardet/chardistribution'
p354
sg12
g13
(g14
g15
NtRp355
(dp356
g18
I1
sg19
I0
sg20
I108
sg21
I0
sg22
I0
sg23
I41
sg24
I0
sbssg25
S'\xc8k\xc8\x7f$\x8f\xd9b\xd8\x03\x1d\xa7q\xf9s\xad'
p357
ssS'test_allegro_api'
p358
(dp359
g6
(dp360
g270
S'test_allegro_api.html'
p361
sg272
S'test_allegro_api'
p362
sg274
g13
(g14
g15
NtRp363
(dp364
g18
I1
sg19
I0
sg20
I27
sg21
I0
sg22
I0
sg23
I0
sg24
I0
sbssg25
S'\x00\xbc\x0cM\xbe\x04\xccG\x8c.\x0b\xe5\xff)\x8a\xb0'
p365
ssS'_usr_share_pyshared_chardet_sbcharsetprober'
p366
(dp367
g6
(dp368
g8
S'_usr_share_pyshared_chardet_sbcharsetprober.html'
p369
sg10
S'/usr/share/pyshared/chardet/sbcharsetprober'
p370
sg12
g13
(g14
g15
NtRp371
(dp372
g18
I1
sg19
I0
sg20
I65
sg21
I0
sg22
I0
sg23
I11
sg24
I0
sbssg25
S'\xc4\x8b|\r\xac\x0e>\xde!\xda2x\x90\x18\x16\xd3'
p373
sssS'version'
p374
S'3.6'
p375
sS'settings'
p376
S'3\xcf\xa1\x19.\x88o$\x8cA\xde\xbd\xcd\x06\xa1\x0f'
p377
sS'format'
p378
I1
s.